target datalayout = "e-m:e-p270:32:32-p271:32:32-p272:64:64-i64:64-i128:128-f80:128-n8:16:32:64-S128"
target triple = "x86_64-pc-linux-gnu"

%"class.icu_77::double_conversion::Bignum" = type { i16, i16, [128 x i32] }

; Function Attrs: mustprogress nounwind uwtable
define linkonce_odr void @_ZN6icu_7717double_conversion6Bignum14EnsureCapacityEi(i32 noundef %0) #0 comdat align 2 {
  %2 = alloca i32, align 4
  store i32 %0, ptr %2, align 4, !tbaa !8
  %3 = load i32, ptr %2, align 4, !tbaa !8
  %4 = icmp sgt i32 %3, 128
  br i1 %4, label %5, label %6

5:                                                ; preds = %1
  call void @abort() #7
  unreachable

6:                                                ; preds = %1
  ret void
}

; Function Attrs: mustprogress nounwind uwtable
define noundef nonnull align 4 dereferenceable(4) ptr @_ZN6icu_7717double_conversion6Bignum8RawBigitEi(ptr noundef nonnull align 4 dereferenceable(516) %0, i32 noundef %1) #0 align 2 {
  %3 = alloca ptr, align 8
  %4 = alloca i32, align 4
  store ptr %0, ptr %3, align 8, !tbaa !3
  store i32 %1, ptr %4, align 4, !tbaa !8
  %5 = load ptr, ptr %3, align 8
  %6 = getelementptr inbounds nuw %"class.icu_77::double_conversion::Bignum", ptr %5, i32 0, i32 2
  %7 = load i32, ptr %4, align 4, !tbaa !8
  %8 = sext i32 %7 to i64
  %9 = getelementptr inbounds [128 x i32], ptr %6, i64 0, i64 %8
  ret ptr %9
}

; Function Attrs: mustprogress nounwind uwtable
define linkonce_odr void @_ZN6icu_7717double_conversion6Bignum4ZeroEv(ptr noundef nonnull align 4 dereferenceable(516) %0) #0 comdat align 2 {
  %2 = alloca ptr, align 8
  store ptr %0, ptr %2, align 8, !tbaa !3
  %3 = load ptr, ptr %2, align 8
  %4 = getelementptr inbounds nuw %"class.icu_77::double_conversion::Bignum", ptr %3, i32 0, i32 0
  store i16 0, ptr %4, align 4, !tbaa !12
  %5 = getelementptr inbounds nuw %"class.icu_77::double_conversion::Bignum", ptr %3, i32 0, i32 1
  store i16 0, ptr %5, align 2, !tbaa !14
  ret void
}

; Function Attrs: mustprogress uwtable
define void @_ZN6icu_7717double_conversion6Bignum16MultiplyByUInt64Em(ptr noundef nonnull align 4 dereferenceable(516) %0, i64 noundef %1) #1 align 2 {
  %3 = alloca ptr, align 8
  %4 = alloca i64, align 8
  %5 = alloca i64, align 8
  %6 = alloca i64, align 8
  %7 = alloca i64, align 8
  %8 = alloca i32, align 4
  %9 = alloca i64, align 8
  %10 = alloca i64, align 8
  %11 = alloca i64, align 8
  store ptr %0, ptr %3, align 8, !tbaa !3
  store i64 %1, ptr %4, align 8, !tbaa !15
  %12 = load ptr, ptr %3, align 8
  %13 = load i64, ptr %4, align 8, !tbaa !15
  %14 = icmp eq i64 %13, 1
  br i1 %14, label %15, label %16

15:                                               ; preds = %2
  br label %93

16:                                               ; preds = %2
  %17 = load i64, ptr %4, align 8, !tbaa !15
  %18 = icmp eq i64 %17, 0
  br i1 %18, label %19, label %20

19:                                               ; preds = %16
  call void @_ZN6icu_7717double_conversion6Bignum4ZeroEv(ptr noundef nonnull align 4 dereferenceable(516) %12)
  br label %93

20:                                               ; preds = %16
  %21 = getelementptr inbounds nuw %"class.icu_77::double_conversion::Bignum", ptr %12, i32 0, i32 0
  %22 = load i16, ptr %21, align 4, !tbaa !12
  %23 = sext i16 %22 to i32
  %24 = icmp eq i32 %23, 0
  br i1 %24, label %25, label %26

25:                                               ; preds = %20
  br label %93

26:                                               ; preds = %20
  call void @llvm.lifetime.start.p0(i64 8, ptr %5) #6
  store i64 0, ptr %5, align 8, !tbaa !15
  call void @llvm.lifetime.start.p0(i64 8, ptr %6) #6
  %27 = load i64, ptr %4, align 8, !tbaa !15
  %28 = and i64 %27, 4294967295
  store i64 %28, ptr %6, align 8, !tbaa !15
  call void @llvm.lifetime.start.p0(i64 8, ptr %7) #6
  %29 = load i64, ptr %4, align 8, !tbaa !15
  %30 = lshr i64 %29, 32
  store i64 %30, ptr %7, align 8, !tbaa !15
  call void @llvm.lifetime.start.p0(i64 4, ptr %8) #6
  store i32 0, ptr %8, align 4, !tbaa !8
  br label %31

31:                                               ; preds = %68, %26
  %32 = load i32, ptr %8, align 4, !tbaa !8
  %33 = getelementptr inbounds nuw %"class.icu_77::double_conversion::Bignum", ptr %12, i32 0, i32 0
  %34 = load i16, ptr %33, align 4, !tbaa !12
  %35 = sext i16 %34 to i32
  %36 = icmp slt i32 %32, %35
  br i1 %36, label %38, label %37

37:                                               ; preds = %31
  call void @llvm.lifetime.end.p0(i64 4, ptr %8) #6
  br label %71

38:                                               ; preds = %31
  call void @llvm.lifetime.start.p0(i64 8, ptr %9) #6
  %39 = load i64, ptr %6, align 8, !tbaa !15
  %40 = load i32, ptr %8, align 4, !tbaa !8
  %41 = call noundef nonnull align 4 dereferenceable(4) ptr @_ZN6icu_7717double_conversion6Bignum8RawBigitEi(ptr noundef nonnull align 4 dereferenceable(516) %12, i32 noundef %40)
  %42 = load i32, ptr %41, align 4, !tbaa !8
  %43 = zext i32 %42 to i64
  %44 = mul i64 %39, %43
  store i64 %44, ptr %9, align 8, !tbaa !15
  call void @llvm.lifetime.start.p0(i64 8, ptr %10) #6
  %45 = load i64, ptr %7, align 8, !tbaa !15
  %46 = load i32, ptr %8, align 4, !tbaa !8
  %47 = call noundef nonnull align 4 dereferenceable(4) ptr @_ZN6icu_7717double_conversion6Bignum8RawBigitEi(ptr noundef nonnull align 4 dereferenceable(516) %12, i32 noundef %46)
  %48 = load i32, ptr %47, align 4, !tbaa !8
  %49 = zext i32 %48 to i64
  %50 = mul i64 %45, %49
  store i64 %50, ptr %10, align 8, !tbaa !15
  call void @llvm.lifetime.start.p0(i64 8, ptr %11) #6
  %51 = load i64, ptr %5, align 8, !tbaa !15
  %52 = and i64 %51, 268435455
  %53 = load i64, ptr %9, align 8, !tbaa !15
  %54 = add i64 %52, %53
  store i64 %54, ptr %11, align 8, !tbaa !15
  %55 = load i64, ptr %11, align 8, !tbaa !15
  %56 = and i64 %55, 268435455
  %57 = trunc i64 %56 to i32
  %58 = load i32, ptr %8, align 4, !tbaa !8
  %59 = call noundef nonnull align 4 dereferenceable(4) ptr @_ZN6icu_7717double_conversion6Bignum8RawBigitEi(ptr noundef nonnull align 4 dereferenceable(516) %12, i32 noundef %58)
  store i32 %57, ptr %59, align 4, !tbaa !8
  %60 = load i64, ptr %5, align 8, !tbaa !15
  %61 = lshr i64 %60, 28
  %62 = load i64, ptr %11, align 8, !tbaa !15
  %63 = lshr i64 %62, 28
  %64 = add i64 %61, %63
  %65 = load i64, ptr %10, align 8, !tbaa !15
  %66 = shl i64 %65, 4
  %67 = add i64 %64, %66
  store i64 %67, ptr %5, align 8, !tbaa !15
  call void @llvm.lifetime.end.p0(i64 8, ptr %11) #6
  call void @llvm.lifetime.end.p0(i64 8, ptr %10) #6
  call void @llvm.lifetime.end.p0(i64 8, ptr %9) #6
  br label %68

68:                                               ; preds = %38
  %69 = load i32, ptr %8, align 4, !tbaa !8
  %70 = add nsw i32 %69, 1
  store i32 %70, ptr %8, align 4, !tbaa !8
  br label %31, !llvm.loop !47

71:                                               ; preds = %37
  br label %72

72:                                               ; preds = %75, %71
  %73 = load i64, ptr %5, align 8, !tbaa !15
  %74 = icmp ne i64 %73, 0
  br i1 %74, label %75, label %92

75:                                               ; preds = %72
  %76 = getelementptr inbounds nuw %"class.icu_77::double_conversion::Bignum", ptr %12, i32 0, i32 0
  %77 = load i16, ptr %76, align 4, !tbaa !12
  %78 = sext i16 %77 to i32
  %79 = add nsw i32 %78, 1
  call void @_ZN6icu_7717double_conversion6Bignum14EnsureCapacityEi(i32 noundef %79)
  %80 = load i64, ptr %5, align 8, !tbaa !15
  %81 = and i64 %80, 268435455
  %82 = trunc i64 %81 to i32
  %83 = getelementptr inbounds nuw %"class.icu_77::double_conversion::Bignum", ptr %12, i32 0, i32 0
  %84 = load i16, ptr %83, align 4, !tbaa !12
  %85 = sext i16 %84 to i32
  %86 = call noundef nonnull align 4 dereferenceable(4) ptr @_ZN6icu_7717double_conversion6Bignum8RawBigitEi(ptr noundef nonnull align 4 dereferenceable(516) %12, i32 noundef %85)
  store i32 %82, ptr %86, align 4, !tbaa !8
  %87 = getelementptr inbounds nuw %"class.icu_77::double_conversion::Bignum", ptr %12, i32 0, i32 0
  %88 = load i16, ptr %87, align 4, !tbaa !12
  %89 = add i16 %88, 1
  store i16 %89, ptr %87, align 4, !tbaa !12
  %90 = load i64, ptr %5, align 8, !tbaa !15
  %91 = lshr i64 %90, 28
  store i64 %91, ptr %5, align 8, !tbaa !15
  br label %72, !llvm.loop !48

92:                                               ; preds = %72
  call void @llvm.lifetime.end.p0(i64 8, ptr %7) #6
  call void @llvm.lifetime.end.p0(i64 8, ptr %6) #6
  call void @llvm.lifetime.end.p0(i64 8, ptr %5) #6
  br label %93

93:                                               ; preds = %92, %25, %19, %15
  ret void
}