; Function Attrs: mustprogress nofree nounwind uwtable
define void @_ZN6icu_7717double_conversion6Bignum16MultiplyByUInt64Em(ptr noundef nonnull align 4 captures(none) dereferenceable(516) %0, i64 noundef %1) local_unnamed_addr #5 align 2 {
  switch i64 %1, label %5 [
    i64 1, label %.loopexit
    i64 0, label %3
  ]

3:                                                ; preds = %2
  store i16 0, ptr %0, align 4, !tbaa !3
  %4 = getelementptr inbounds nuw i8, ptr %0, i64 2
  store i16 0, ptr %4, align 2, !tbaa !8
  br label %.loopexit

5:                                                ; preds = %2
  %6 = load i16, ptr %0, align 4, !tbaa !3
  %7 = icmp eq i16 %6, 0
  br i1 %7, label %.loopexit, label %8

8:                                                ; preds = %5
  %9 = and i64 %1, 4294967295
  %10 = icmp sgt i16 %6, 0
  br i1 %10, label %.lr.ph, label %.loopexit

.lr.ph:                                           ; preds = %8
  %wide.trip.count = zext nneg i16 %6 to i64
  %11 = getelementptr inbounds nuw i8, ptr %0, i64 4
  %12 = lshr i64 %1, 28
  %13 = and i64 %12, 68719476720
  br label %15

.preheader:                                       ; preds = %15
  %.not24 = icmp eq i64 %28, 0
  br i1 %.not24, label %.loopexit, label %.lr.ph26

.lr.ph26:                                         ; preds = %.preheader
  %14 = getelementptr inbounds nuw i8, ptr %0, i64 4
  br label %29

15:                                               ; preds = %.lr.ph, %15
  %indvars.iv = phi i64 [ 0, %.lr.ph ], [ %indvars.iv.next, %15 ]
  %.023 = phi i64 [ 0, %.lr.ph ], [ %28, %15 ]
  %16 = getelementptr inbounds nuw [128 x i32], ptr %11, i64 0, i64 %indvars.iv
  %17 = load i32, ptr %16, align 4, !tbaa !9
  %18 = zext i32 %17 to i64
  %19 = mul nuw i64 %9, %18
  %20 = and i64 %.023, 268435455
  %21 = add nuw i64 %19, %20
  %22 = trunc i64 %21 to i32
  %23 = and i32 %22, 268435455
  store i32 %23, ptr %16, align 4, !tbaa !9
  %24 = lshr i64 %.023, 28
  %25 = lshr i64 %21, 28
  %26 = mul i64 %13, %18
  %27 = add i64 %26, %24
  %28 = add i64 %27, %25
  %indvars.iv.next = add nuw nsw i64 %indvars.iv, 1
  %exitcond.not = icmp eq i64 %indvars.iv.next, %wide.trip.count
  br i1 %exitcond.not, label %.preheader, label %15, !llvm.loop !18

29:                                               ; preds = %.lr.ph26, %_ZN6icu_7717double_conversion6Bignum14EnsureCapacityEi.exit
  %.125 = phi i64 [ %28, %.lr.ph26 ], [ %38, %_ZN6icu_7717double_conversion6Bignum14EnsureCapacityEi.exit ]
  %30 = phi i16 [ %6, %.lr.ph26 ], [ %37, %_ZN6icu_7717double_conversion6Bignum14EnsureCapacityEi.exit ]
  %31 = icmp sgt i16 %30, 127
  br i1 %31, label %32, label %_ZN6icu_7717double_conversion6Bignum14EnsureCapacityEi.exit

32:                                               ; preds = %29
  tail call void @abort() #12
  unreachable

_ZN6icu_7717double_conversion6Bignum14EnsureCapacityEi.exit: ; preds = %29
  %33 = trunc i64 %.125 to i32
  %34 = and i32 %33, 268435455
  %35 = zext nneg i16 %30 to i64
  %36 = getelementptr inbounds nuw [128 x i32], ptr %14, i64 0, i64 %35
  store i32 %34, ptr %36, align 4, !tbaa !9
  %37 = add nuw nsw i16 %30, 1
  store i16 %37, ptr %0, align 4, !tbaa !3
  %38 = lshr i64 %.125, 28
  %.not = icmp ult i64 %.125, 268435456
  br i1 %.not, label %.loopexit, label %29, !llvm.loop !19

.loopexit:                                        ; preds = %_ZN6icu_7717double_conversion6Bignum14EnsureCapacityEi.exit, %8, %.preheader, %2, %5, %3
  ret void
}